target datalayout = "e-m:e-p270:32:32-p271:32:32-p272:64:64-i64:64-i128:128-f80:128-n8:16:32:64-S128"
target triple = "x86_64-pc-linux-gnu"

%"class.cvc5::internal::NodeTemplate.67" = type { ptr }
%"class.cvc5::internal::NodeTemplate" = type { ptr }
%"class.cvc5::internal::theory::Valuation" = type { ptr }
%"class.cvc5::internal::TheoryEngine" = type { %"class.cvc5::internal::EnvObj", ptr, [14 x ptr], %"class.std::shared_ptr", %"class.std::shared_ptr.0", %"class.std::unique_ptr", ptr, ptr, %"class.std::unique_ptr.5", %"class.std::unique_ptr.13", [14 x ptr], %"class.cvc5::context::CDO", %"class.cvc5::context::CDO", %"class.cvc5::context::CDO.21", %"class.cvc5::context::CDO.23", %"class.cvc5::context::CDO", %"class.cvc5::context::CDO.21", %"class.cvc5::context::CDO.23", %"class.cvc5::context::CDHashMap", %"class.cvc5::context::CDO.27", %"class.cvc5::context::CDList", %"class.cvc5::context::CDO.31", i8, i8, %"class.cvc5::internal::AtomRequests", %"class.std::unique_ptr.59", %"class.cvc5::internal::theory::TheoryEngineStatistics", %"class.cvc5::internal::NodeTemplate.67", %"class.cvc5::internal::NodeTemplate.67", i8, %"class.std::queue", i8, [7 x i8], %"class.cvc5::context::CDO", %"class.std::unique_ptr.68", %"class.std::vector.76", %"class.std::unique_ptr.81", %"class.std::vector.89" }
%"class.cvc5::internal::EnvObj" = type { ptr, ptr }
%"class.std::shared_ptr" = type { %"class.std::__shared_ptr" }
%"class.std::__shared_ptr" = type { ptr, %"class.std::__shared_count" }
%"class.std::__shared_count" = type { ptr }
%"class.std::shared_ptr.0" = type { %"class.std::__shared_ptr.1" }
%"class.std::__shared_ptr.1" = type { ptr, %"class.std::__shared_count" }
%"class.std::unique_ptr" = type { %"struct.std::__uniq_ptr_data" }
%"struct.std::__uniq_ptr_data" = type { %"class.std::__uniq_ptr_impl" }
%"class.std::__uniq_ptr_impl" = type { %"class.std::tuple" }
%"class.std::tuple" = type { %"struct.std::_Tuple_impl" }
%"struct.std::_Tuple_impl" = type { %"struct.std::_Head_base.4" }
%"struct.std::_Head_base.4" = type { ptr }
%"class.std::unique_ptr.5" = type { %"struct.std::__uniq_ptr_data.6" }
%"struct.std::__uniq_ptr_data.6" = type { %"class.std::__uniq_ptr_impl.7" }
%"class.std::__uniq_ptr_impl.7" = type { %"class.std::tuple.8" }
%"class.std::tuple.8" = type { %"struct.std::_Tuple_impl.9" }
%"struct.std::_Tuple_impl.9" = type { %"struct.std::_Head_base.12" }
%"struct.std::_Head_base.12" = type { ptr }
%"class.std::unique_ptr.13" = type { %"struct.std::__uniq_ptr_data.14" }
%"struct.std::__uniq_ptr_data.14" = type { %"class.std::__uniq_ptr_impl.15" }
%"class.std::__uniq_ptr_impl.15" = type { %"class.std::tuple.16" }
%"class.std::tuple.16" = type { %"struct.std::_Tuple_impl.17" }
%"struct.std::_Tuple_impl.17" = type { %"struct.std::_Head_base.20" }
%"struct.std::_Head_base.20" = type { ptr }
%"class.cvc5::context::CDO.21" = type <{ %"class.cvc5::context::ContextObj", i32, [4 x i8] }>
%"class.cvc5::context::ContextObj" = type { ptr, ptr, ptr, ptr, ptr }
%"class.cvc5::context::CDO.23" = type <{ %"class.cvc5::context::ContextObj", i32, [4 x i8] }>
%"class.cvc5::context::CDHashMap" = type { %"class.cvc5::context::ContextObj", %"class.std::unordered_map", ptr, ptr }
%"class.std::unordered_map" = type { %"class.std::_Hashtable" }
%"class.std::_Hashtable" = type { [8 x i8], ptr, i64, %"struct.std::__detail::_Hash_node_base", i64, %"struct.std::__detail::_Prime_rehash_policy", ptr }
%"struct.std::__detail::_Hash_node_base" = type { ptr }
%"struct.std::__detail::_Prime_rehash_policy" = type { float, i64 }
%"class.cvc5::context::CDO.27" = type { %"class.cvc5::context::ContextObj", i64 }
%"class.cvc5::context::CDList" = type <{ %"class.cvc5::context::ContextObj", %"class.std::vector", i64, i8, [7 x i8] }>
%"class.std::vector" = type { %"struct.std::_Vector_base" }
%"struct.std::_Vector_base" = type { %"struct.std::_Vector_base<cvc5::internal::NodeTemplate<false>, std::allocator<cvc5::internal::NodeTemplate<false>>>::_Vector_impl" }
%"struct.std::_Vector_base<cvc5::internal::NodeTemplate<false>, std::allocator<cvc5::internal::NodeTemplate<false>>>::_Vector_impl" = type { %"struct.std::_Vector_base<cvc5::internal::NodeTemplate<false>, std::allocator<cvc5::internal::NodeTemplate<false>>>::_Vector_impl_data" }
%"struct.std::_Vector_base<cvc5::internal::NodeTemplate<false>, std::allocator<cvc5::internal::NodeTemplate<false>>>::_Vector_impl_data" = type { ptr, ptr, ptr }
%"class.cvc5::context::CDO.31" = type <{ %"class.cvc5::context::ContextObj", i32, [4 x i8] }>
%"class.cvc5::internal::AtomRequests" = type { %"class.cvc5::context::CDHashSet", %"class.cvc5::context::CDList.33", %"class.cvc5::context::CDHashMap.40" }
%"class.cvc5::context::CDHashSet" = type { %"class.cvc5::context::CDInsertHashMap" }
%"class.cvc5::context::CDInsertHashMap" = type { %"class.cvc5::context::ContextObj", ptr, i64 }
%"class.cvc5::context::CDList.33" = type <{ %"class.cvc5::context::ContextObj", %"class.std::vector.34", i64, i8, [7 x i8] }>
%"class.std::vector.34" = type { %"struct.std::_Vector_base.35" }
%"struct.std::_Vector_base.35" = type { %"struct.std::_Vector_base<cvc5::internal::AtomRequests::Element, std::allocator<cvc5::internal::AtomRequests::Element>>::_Vector_impl" }
%"struct.std::_Vector_base<cvc5::internal::AtomRequests::Element, std::allocator<cvc5::internal::AtomRequests::Element>>::_Vector_impl" = type { %"struct.std::_Vector_base<cvc5::internal::AtomRequests::Element, std::allocator<cvc5::internal::AtomRequests::Element>>::_Vector_impl_data" }
%"struct.std::_Vector_base<cvc5::internal::AtomRequests::Element, std::allocator<cvc5::internal::AtomRequests::Element>>::_Vector_impl_data" = type { ptr, ptr, ptr }
%"class.cvc5::context::CDHashMap.40" = type { %"class.cvc5::context::ContextObj", %"class.std::unordered_map.41", ptr, ptr }
%"class.std::unordered_map.41" = type { %"class.std::_Hashtable.42" }
%"class.std::_Hashtable.42" = type { ptr, i64, %"struct.std::__detail::_Hash_node_base", i64, %"struct.std::__detail::_Prime_rehash_policy", ptr }
%"class.std::unique_ptr.59" = type { %"struct.std::__uniq_ptr_data.60" }
%"struct.std::__uniq_ptr_data.60" = type { %"class.std::__uniq_ptr_impl.61" }
%"class.std::__uniq_ptr_impl.61" = type { %"class.std::tuple.62" }
%"class.std::tuple.62" = type { %"struct.std::_Tuple_impl.63" }
%"struct.std::_Tuple_impl.63" = type { %"struct.std::_Head_base.66" }
%"struct.std::_Head_base.66" = type { ptr }
%"class.cvc5::internal::theory::TheoryEngineStatistics" = type { %"class.cvc5::internal::TimerStat", %"class.cvc5::internal::IntStat", %"class.cvc5::internal::IntStat", %"class.cvc5::internal::IntStat", %"class.cvc5::internal::IntStat" }
%"class.cvc5::internal::TimerStat" = type { ptr }
%"class.cvc5::internal::IntStat" = type { %"class.cvc5::internal::ValueStat" }
%"class.cvc5::internal::ValueStat" = type { ptr }
%"class.std::queue" = type { %"class.std::deque" }
%"class.std::deque" = type { %"class.std::_Deque_base" }
%"class.std::_Deque_base" = type { %"struct.std::_Deque_base<cvc5::internal::NodeTemplate<false>, std::allocator<cvc5::internal::NodeTemplate<false>>>::_Deque_impl" }
%"struct.std::_Deque_base<cvc5::internal::NodeTemplate<false>, std::allocator<cvc5::internal::NodeTemplate<false>>>::_Deque_impl" = type { %"struct.std::_Deque_base<cvc5::internal::NodeTemplate<false>, std::allocator<cvc5::internal::NodeTemplate<false>>>::_Deque_impl_data" }
%"struct.std::_Deque_base<cvc5::internal::NodeTemplate<false>, std::allocator<cvc5::internal::NodeTemplate<false>>>::_Deque_impl_data" = type { ptr, i64, %"struct.std::_Deque_iterator", %"struct.std::_Deque_iterator" }
%"struct.std::_Deque_iterator" = type { ptr, ptr, ptr, ptr }
%"class.cvc5::context::CDO" = type <{ %"class.cvc5::context::ContextObj", i8, [7 x i8] }>
%"class.std::unique_ptr.68" = type { %"struct.std::__uniq_ptr_data.69" }
%"struct.std::__uniq_ptr_data.69" = type { %"class.std::__uniq_ptr_impl.70" }
%"class.std::__uniq_ptr_impl.70" = type { %"class.std::tuple.71" }
%"class.std::tuple.71" = type { %"struct.std::_Tuple_impl.72" }
%"struct.std::_Tuple_impl.72" = type { %"struct.std::_Head_base.75" }
%"struct.std::_Head_base.75" = type { ptr }
%"class.std::vector.76" = type { %"struct.std::_Vector_base.77" }
%"struct.std::_Vector_base.77" = type { %"struct.std::_Vector_base<cvc5::internal::theory::TheoryEngineModule *, std::allocator<cvc5::internal::theory::TheoryEngineModule *>>::_Vector_impl" }
%"struct.std::_Vector_base<cvc5::internal::theory::TheoryEngineModule *, std::allocator<cvc5::internal::theory::TheoryEngineModule *>>::_Vector_impl" = type { %"struct.std::_Vector_base<cvc5::internal::theory::TheoryEngineModule *, std::allocator<cvc5::internal::theory::TheoryEngineModule *>>::_Vector_impl_data" }
%"struct.std::_Vector_base<cvc5::internal::theory::TheoryEngineModule *, std::allocator<cvc5::internal::theory::TheoryEngineModule *>>::_Vector_impl_data" = type { ptr, ptr, ptr }
%"class.std::unique_ptr.81" = type { %"struct.std::__uniq_ptr_data.82" }
%"struct.std::__uniq_ptr_data.82" = type { %"class.std::__uniq_ptr_impl.83" }
%"class.std::__uniq_ptr_impl.83" = type { %"class.std::tuple.84" }
%"class.std::tuple.84" = type { %"struct.std::_Tuple_impl.85" }
%"struct.std::_Tuple_impl.85" = type { %"struct.std::_Head_base.88" }
%"struct.std::_Head_base.88" = type { ptr }
%"class.std::vector.89" = type { %"struct.std::_Vector_base.90" }
%"struct.std::_Vector_base.90" = type { %"struct.std::_Vector_base<std::unique_ptr<cvc5::internal::theory::PluginModule>, std::allocator<std::unique_ptr<cvc5::internal::theory::PluginModule>>>::_Vector_impl" }
%"struct.std::_Vector_base<std::unique_ptr<cvc5::internal::theory::PluginModule>, std::allocator<std::unique_ptr<cvc5::internal::theory::PluginModule>>>::_Vector_impl" = type { %"struct.std::_Vector_base<std::unique_ptr<cvc5::internal::theory::PluginModule>, std::allocator<std::unique_ptr<cvc5::internal::theory::PluginModule>>>::_Vector_impl_data" }
%"struct.std::_Vector_base<std::unique_ptr<cvc5::internal::theory::PluginModule>, std::allocator<std::unique_ptr<cvc5::internal::theory::PluginModule>>>::_Vector_impl_data" = type { ptr, ptr, ptr }

; Function Attrs: mustprogress nounwind uwtable
define linkonce_odr hidden void @_ZN4cvc58internal12NodeTemplateILb0EED2Ev(ptr noundef nonnull align 8 dereferenceable(8) %0) unnamed_addr #4 comdat align 2 {
  %2 = alloca ptr, align 8
  store ptr %0, ptr %2, align 8, !tbaa !26
  ret void
}

; Function Attrs: mustprogress nounwind uwtable
define linkonce_odr hidden void @_ZN4cvc58internal12NodeTemplateILb0EEC2ERKS2_(ptr noundef nonnull align 8 dereferenceable(8) %0, ptr noundef nonnull align 8 dereferenceable(8) %1) unnamed_addr #4 comdat align 2 {
  %3 = alloca ptr, align 8
  %4 = alloca ptr, align 8
  store ptr %0, ptr %3, align 8, !tbaa !26
  store ptr %1, ptr %4, align 8, !tbaa !26
  %5 = load ptr, ptr %3, align 8
  %6 = load ptr, ptr %4, align 8, !tbaa !26
  %7 = getelementptr inbounds nuw %"class.cvc5::internal::NodeTemplate", ptr %6, i32 0, i32 0
  %8 = load ptr, ptr %7, align 8, !tbaa !162
  %9 = getelementptr inbounds nuw %"class.cvc5::internal::NodeTemplate", ptr %5, i32 0, i32 0
  store ptr %8, ptr %9, align 8, !tbaa !162
  ret void
}

; Function Attrs: mustprogress nounwind uwtable
define linkonce_odr hidden noundef ptr @_ZNK4cvc58internal12TheoryEngine13getPropEngineEv(ptr noundef nonnull align 8 dereferenceable(1480) %0) #4 comdat align 2 {
  %2 = alloca ptr, align 8
  store ptr %0, ptr %2, align 8, !tbaa !31
  %3 = load ptr, ptr %2, align 8
  %4 = getelementptr inbounds nuw %"class.cvc5::internal::TheoryEngine", ptr %3, i32 0, i32 1
  %5 = load ptr, ptr %4, align 8, !tbaa !32
  ret ptr %5
}

; Function Attrs: mustprogress uwtable
define hidden void @_ZN4cvc58internal6theory9Valuation19getPreprocessedTermENS0_12NodeTemplateILb0EEERSt6vectorINS3_ILb1EEESaIS6_EES9_(ptr dead_on_unwind noalias writable sret(%"class.cvc5::internal::NodeTemplate.67") align 8 %0, ptr noundef nonnull align 8 dereferenceable(8) %1, ptr noundef %2, ptr noundef nonnull align 8 dereferenceable(24) %3, ptr noundef nonnull align 8 dereferenceable(24) %4) #6 align 2 personality ptr @__gxx_personality_v0 {
  %6 = alloca ptr, align 8
  %7 = alloca ptr, align 8
  %8 = alloca ptr, align 8
  %9 = alloca ptr, align 8
  %10 = alloca ptr, align 8
  %11 = alloca %"class.cvc5::internal::NodeTemplate", align 8
  %12 = alloca ptr, align 8
  %13 = alloca i32, align 4
  store ptr %0, ptr %6, align 8
  store ptr %1, ptr %7, align 8, !tbaa !24
  store ptr %2, ptr %8, align 8, !tbaa !26
  store ptr %3, ptr %9, align 8, !tbaa !174
  store ptr %4, ptr %10, align 8, !tbaa !174
  %14 = load ptr, ptr %7, align 8
  %15 = getelementptr inbounds nuw %"class.cvc5::internal::theory::Valuation", ptr %14, i32 0, i32 0
  %16 = load ptr, ptr %15, align 8, !tbaa !28
  %17 = call noundef ptr @_ZNK4cvc58internal12TheoryEngine13getPropEngineEv(ptr noundef nonnull align 8 dereferenceable(1480) %16)
  call void @_ZN4cvc58internal12NodeTemplateILb0EEC2ERKS2_(ptr noundef nonnull align 8 dereferenceable(8) %11, ptr noundef nonnull align 8 dereferenceable(8) %2)
  %18 = load ptr, ptr %9, align 8, !tbaa !174
  %19 = load ptr, ptr %10, align 8, !tbaa !174
  invoke void @_ZN4cvc58internal4prop10PropEngine19getPreprocessedTermENS0_12NodeTemplateILb0EEERSt6vectorINS3_ILb1EEESaIS6_EES9_(ptr dead_on_unwind writable sret(%"class.cvc5::internal::NodeTemplate.67") align 8 %0, ptr noundef nonnull align 8 dereferenceable(416) %17, ptr noundef %11, ptr noundef nonnull align 8 dereferenceable(24) %18, ptr noundef nonnull align 8 dereferenceable(24) %19)
          to label %20 unwind label %21

20:                                               ; preds = %5
  call void @_ZN4cvc58internal12NodeTemplateILb0EED2Ev(ptr noundef nonnull align 8 dereferenceable(8) %11) #3
  ret void

21:                                               ; preds = %5
  %22 = landingpad { ptr, i32 }
          cleanup
  %23 = extractvalue { ptr, i32 } %22, 0
  store ptr %23, ptr %12, align 8
  %24 = extractvalue { ptr, i32 } %22, 1
  store i32 %24, ptr %13, align 4
  call void @_ZN4cvc58internal12NodeTemplateILb0EED2Ev(ptr noundef nonnull align 8 dereferenceable(8) %11) #3
  br label %25

25:                                               ; preds = %21
  %26 = load ptr, ptr %12, align 8
  %27 = load i32, ptr %13, align 4
  %28 = insertvalue { ptr, i32 } poison, ptr %26, 0
  %29 = insertvalue { ptr, i32 } %28, i32 %27, 1
  resume { ptr, i32 } %29
}