; Function Attrs: mustprogress uwtable
define hidden void @_ZN4cvc58internal6theory9Valuation19getPreprocessedTermENS0_12NodeTemplateILb0EEERSt6vectorINS3_ILb1EEESaIS6_EES9_(ptr dead_on_unwind noalias writable sret(%"class.cvc5::internal::NodeTemplate.67") align 8 %0, ptr noundef nonnull readonly align 8 captures(none) dereferenceable(8) %1, ptr noundef readonly captures(none) %2, ptr noundef nonnull align 8 dereferenceable(24) %3, ptr noundef nonnull align 8 dereferenceable(24) %4) local_unnamed_addr #4 align 2 personality ptr @__gxx_personality_v0 {
  %6 = alloca %"class.cvc5::internal::NodeTemplate", align 8
  %7 = load ptr, ptr %1, align 8, !tbaa !3
  %8 = getelementptr inbounds nuw i8, ptr %7, i64 16
  %9 = load ptr, ptr %8, align 8, !tbaa !9
  %10 = load ptr, ptr %2, align 8, !tbaa !142
  store ptr %10, ptr %6, align 8, !tbaa !142
  call void @_ZN4cvc58internal4prop10PropEngine19getPreprocessedTermENS0_12NodeTemplateILb0EEERSt6vectorINS3_ILb1EEESaIS6_EES9_(ptr dead_on_unwind writable sret(%"class.cvc5::internal::NodeTemplate.67") align 8 %0, ptr noundef nonnull align 8 dereferenceable(416) %9, ptr noundef nonnull %6, ptr noundef nonnull align 8 dereferenceable(24) %3, ptr noundef nonnull align 8 dereferenceable(24) %4)
  ret void
}